; Function Attrs: cold nounwind optsize uwtable
define internal noundef i32 @atrac3p_decode_close(ptr noundef readonly captures(none) %0) #0 {
  %2 = getelementptr inbounds nuw i8, ptr %0, i64 32
  %3 = load ptr, ptr %2, align 8, !tbaa !4
  %4 = getelementptr inbounds nuw i8, ptr %3, i64 65816
  tail call void @av_freep(ptr noundef nonnull %4) #7
  %5 = getelementptr inbounds nuw i8, ptr %3, i64 32
  tail call void @av_freep(ptr noundef nonnull %5) #7
  %6 = getelementptr inbounds nuw i8, ptr %3, i64 65784
  tail call void @av_tx_uninit(ptr noundef nonnull %6) #7
  %7 = getelementptr inbounds nuw i8, ptr %3, i64 65800
  tail call void @av_tx_uninit(ptr noundef nonnull %7) #7
  ret i32 0
}